target datalayout = "e-m:e-p270:32:32-p271:32:32-p272:64:64-i64:64-i128:128-f80:128-n8:16:32:64-S128"
target triple = "x86_64-pc-linux-gnu"

%class.QString = type { %struct.QArrayDataPointer }
%struct.QArrayDataPointer = type { ptr, ptr, i64 }
%class.GeometryStateDialog = type { %class.QDialog, %class.QString, ptr }
%class.QDialog = type { %class.QWidget }
%class.QWidget = type { %class.QObject, %class.QPaintDevice.base, ptr }
%class.QObject = type { ptr, %class.QScopedPointer }
%class.QScopedPointer = type { ptr }
%class.QPaintDevice.base = type <{ ptr, i16 }>
%class.QList = type { %struct.QArrayDataPointer.0 }
%struct.QArrayDataPointer.0 = type { ptr, ptr, i64 }
%class.WiresharkDialog = type <{ %class.GeometryStateDialog, ptr, i8, [7 x i8], %class.QString, %class.QList, i32, i8, [3 x i8] }>
%class.QVariant = type { %"struct.QVariant::Private" }
%"struct.QVariant::Private" = type { %union.anon.26, i64 }
%union.anon.26 = type { ptr, [16 x i8] }
%struct._bluetooth_item_data_t = type { i32, i32, i32, i32 }

; Function Attrs: mustprogress null_pointer_is_valid sspstrong uwtable
define void @_ZN25BluetoothHciSummaryDialog32on_tableTreeWidget_itemActivatedEP15QTreeWidgetItemi(ptr noundef align 8 dereferenceable_or_null(328) %0, ptr noundef %1, i32 noundef %2) #0 align 2 personality ptr @__gxx_personality_v0 {
  %4 = alloca ptr, align 8
  %5 = alloca ptr, align 8
  %6 = alloca i32, align 4
  %7 = alloca ptr, align 8
  %8 = alloca %class.QVariant, align 8
  %9 = alloca ptr, align 8
  %10 = alloca i32, align 4
  store ptr %0, ptr %4, align 8
  store ptr %1, ptr %5, align 8
  store i32 %2, ptr %6, align 4
  %11 = load ptr, ptr %4, align 8
  %12 = getelementptr inbounds nuw %class.WiresharkDialog, ptr %11, i32 0, i32 2
  %13 = load i8, ptr %12, align 8, !range !12, !noundef !13
  %14 = trunc i8 %13 to i1
  br i1 %14, label %15, label %16

15:                                               ; preds = %3
  br label %34

16:                                               ; preds = %3
  call void @llvm.lifetime.start.p0(i64 8, ptr %7) #26
  %17 = load ptr, ptr %5, align 8
  %18 = load ptr, ptr %17, align 8
  %19 = getelementptr inbounds ptr, ptr %18, i64 3
  %20 = load ptr, ptr %19, align 8
  call void %20(ptr dead_on_unwind writable sret(%class.QVariant) align 8 %8, ptr noundef align 8 dereferenceable_or_null(92) %17, i32 noundef 0, i32 noundef 256)
  %21 = invoke noundef ptr @_ZN14VariantPointerI22_bluetooth_item_data_tE5asPtrE8QVariant(ptr noundef %8)
          to label %22 unwind label %29

22:                                               ; preds = %16
  call void @_ZN8QVariantD1Ev(ptr noundef align 8 dereferenceable_or_null(32) %8) #26
  store ptr %21, ptr %7, align 8
  %23 = load ptr, ptr %7, align 8
  %24 = icmp ne ptr %23, null
  br i1 %24, label %25, label %33

25:                                               ; preds = %22
  %26 = load ptr, ptr %7, align 8
  %27 = getelementptr inbounds nuw %struct._bluetooth_item_data_t, ptr %26, i32 0, i32 2
  %28 = load i32, ptr %27, align 4
  call void @_ZN25BluetoothHciSummaryDialog10goToPacketEi(ptr noundef align 8 dereferenceable_or_null(328) %11, i32 noundef %28)
  br label %33

29:                                               ; preds = %16
  %30 = landingpad { ptr, i32 }
          cleanup
  %31 = extractvalue { ptr, i32 } %30, 0
  store ptr %31, ptr %9, align 8
  %32 = extractvalue { ptr, i32 } %30, 1
  store i32 %32, ptr %10, align 4
  call void @_ZN8QVariantD1Ev(ptr noundef align 8 dereferenceable_or_null(32) %8) #26
  call void @llvm.lifetime.end.p0(i64 8, ptr %7) #26
  br label %35

33:                                               ; preds = %25, %22
  call void @llvm.lifetime.end.p0(i64 8, ptr %7) #26
  br label %34

34:                                               ; preds = %33, %15
  ret void

35:                                               ; preds = %29
  %36 = load ptr, ptr %9, align 8
  %37 = load i32, ptr %10, align 4
  %38 = insertvalue { ptr, i32 } poison, ptr %36, 0
  %39 = insertvalue { ptr, i32 } %38, i32 %37, 1
  resume { ptr, i32 } %39
}